Certificate:
    Data:
        Version: 3 (0x2)
        Serial Number:
            96:8f:24:6b:c8:9f:58:5b
    Signature Algorithm: sha256WithRSAEncryption
        Issuer: C=RU, ST=MO, O=dotty.su, OU=IT, CN=Root CA/emailAddress=bird@dotty.su
        Validity
            Not Before: Jul  9 23:38:41 2016 GMT
            Not After : Jul  2 23:38:41 2046 GMT
        Subject: C=RU, ST=MO, O=dotty.su, OU=IT, CN=Root CA/emailAddress=bird@dotty.su
        Subject Public Key Info:
            Public Key Algorithm: rsaEncryption
                Public-Key: (2048 bit)
                Modulus:
                    00:bf:c6:8c:c5:b3:7c:d6:bd:bd:6b:43:e5:0b:ca:
                    c2:24:40:73:bf:88:a4:24:88:03:34:c9:38:95:ea:
                    66:09:00:bf:7a:65:1d:71:07:b5:79:0b:01:ce:4e:
                    d8:dd:e6:4b:99:5f:8f:ac:0e:ba:97:44:8f:8c:b2:
                    2a:d2:f6:a9:ac:02:ee:08:26:4f:86:4b:b6:f3:6d:
                    32:5a:34:66:60:fe:c9:91:79:6d:46:5e:da:a8:1a:
                    6d:47:bd:a9:30:05:da:64:fa:4a:a5:4c:e2:1a:b0:
                    46:aa:6a:d7:3c:96:e4:9a:d4:f7:d1:82:bd:27:b9:
                    af:70:ca:e6:7c:ff:2d:c5:00:ef:0c:af:8e:ff:56:
                    fb:4e:65:3b:30:40:f4:92:49:f5:f1:57:0c:bd:e5:
                    29:b2:3d:33:0f:7e:b9:74:c1:ef:02:de:d0:92:cc:
                    aa:5d:2b:c8:43:be:fa:fb:14:d1:a2:56:e7:12:e1:
                    59:4c:27:4d:66:cf:46:ed:94:d2:49:06:06:49:65:
                    4e:df:ec:c6:88:51:29:37:20:fb:d1:32:24:6f:19:
                    b8:6d:af:77:1b:1f:ca:f7:d0:be:69:4e:1e:06:f8:
                    92:84:ee:72:d4:2d:ea:49:f2:d4:e0:b6:83:24:3d:
                    a5:ba:ed:ab:d3:2d:f6:e1:8b:16:cc:49:ab:55:9a:
                    c3:23
                Exponent: 65537 (0x10001)
        X509v3 extensions:
            X509v3 Subject Key Identifier: 
                5A:5A:12:4C:DE:B8:B2:4E:2D:DB:49:C7:E6:20:3E:63:F6:C4:DA:BB
            X509v3 Authority Key Identifier: 
                keyid:5A:5A:12:4C:DE:B8:B2:4E:2D:DB:49:C7:E6:20:3E:63:F6:C4:DA:BB

            X509v3 Basic Constraints: 
                CA:TRUE
    Signature Algorithm: sha256WithRSAEncryption
         a6:7c:04:63:21:5e:b8:1a:ae:d1:16:9f:af:fe:68:07:f7:19:
         a7:f1:ee:98:6d:09:f8:47:7f:b8:03:ba:13:80:25:c1:94:cc:
         ad:c2:ff:88:f0:c6:b6:ff:c4:4d:b3:be:8e:0c:d1:24:21:26:
         a4:a4:d5:ec:10:c1:20:de:31:8c:37:58:73:5e:f5:54:a7:c6:
         4a:61:93:bb:1e:20:4d:a5:d0:0d:3e:d5:55:ce:37:59:df:74:
         2f:4f:17:fd:8c:81:6f:44:84:59:20:b6:6d:9a:dd:ef:2e:16:
         06:56:ab:79:86:1c:e8:48:57:46:25:4a:e4:22:42:45:06:0c:
         41:52:c3:bf:da:3d:69:fb:88:73:e7:1c:4e:85:50:ff:81:81:
         b7:a0:d7:06:24:61:71:f0:e8:3e:99:84:9f:6f:85:f1:df:0f:
         e6:58:51:62:dc:09:b0:b0:e1:a1:5a:f8:8f:90:ef:79:b8:e3:
         56:cf:50:7e:32:49:2a:67:57:83:bb:a9:23:07:ab:d4:db:fc:
         2d:a0:3f:1e:98:ba:c2:e3:7a:03:16:5f:74:bb:6d:13:17:e6:
         69:95:db:9f:92:47:a0:0b:c6:6a:e3:bb:10:e0:74:68:c6:35:
         b2:69:a3:28:55:b0:3f:5f:2b:b7:e5:b4:06:0b:75:82:75:e4:
         68:3a:db:91
-----BEGIN CERTIFICATE-----
MIIDpzCCAo+gAwIBAgIJAJaPJGvIn1hbMA0GCSqGSIb3DQEBCwUAMGoxCzAJBgNV
BAYTAlJVMQswCQYDVQQIDAJNTzERMA8GA1UECgwIZG90dHkuc3UxCzAJBgNVBAsM
AklUMRAwDgYDVQQDDAdSb290IENBMRwwGgYJKoZIhvcNAQkBFg1iaXJkQGRvdHR5
LnN1MB4XDTE2MDcwOTIzMzg0MVoXDTQ2MDcwMjIzMzg0MVowajELMAkGA1UEBhMC
UlUxCzAJBgNVBAgMAk1PMREwDwYDVQQKDAhkb3R0eS5zdTELMAkGA1UECwwCSVQx
EDAOBgNVBAMMB1Jvb3QgQ0ExHDAaBgkqhkiG9w0BCQEWDWJpcmRAZG90dHkuc3Uw
ggEiMA0GCSqGSIb3DQEBAQUAA4IBDwAwggEKAoIBAQC/xozFs3zWvb1rQ+ULysIk
QHO/iKQkiAM0yTiV6mYJAL96ZR1xB7V5CwHOTtjd5kuZX4+sDrqXRI+MsirS9qms
Au4IJk+GS7bzbTJaNGZg/smReW1GXtqoGm1HvakwBdpk+kqlTOIasEaqatc8luSa
1PfRgr0nua9wyuZ8/y3FAO8Mr47/VvtOZTswQPSSSfXxVwy95SmyPTMPfrl0we8C
3tCSzKpdK8hDvvr7FNGiVucS4VlMJ01mz0btlNJJBgZJZU7f7MaIUSk3IPvRMiRv
Gbhtr3cbH8r30L5pTh4G+JKE7nLULepJ8tTgtoMkPaW67avTLfbhixbMSatVmsMj
AgMBAAGjUDBOMB0GA1UdDgQWBBRaWhJM3riyTi3bScfmID5j9sTauzAfBgNVHSME
GDAWgBRaWhJM3riyTi3bScfmID5j9sTauzAMBgNVHRMEBTADAQH/MA0GCSqGSIb3
DQEBCwUAA4IBAQCmfARjIV64Gq7RFp+v/mgH9xmn8e6YbQn4R3+4A7oTgCXBlMyt
wv+I8Ma2/8RNs76ODNEkISakpNXsEMEg3jGMN1hzXvVUp8ZKYZO7HiBNpdANPtVV
zjdZ33QvTxf9jIFvRIRZILZtmt3vLhYGVqt5hhzoSFdGJUrkIkJFBgxBUsO/2j1p
+4hz5xxOhVD/gYG3oNcGJGFx8Og+mYSfb4Xx3w/mWFFi3AmwsOGhWviPkO95uONW
z1B+MkkqZ1eDu6kjB6vU2/wtoD8emLrC43oDFl90u20TF+ZpldufkkegC8Zq47sQ
4HRoxjWyaaMoVbA/Xyu35bQGC3WCdeRoOtuR
-----END CERTIFICATE-----
